Certificate:
    Data:
        Version: 1 (0x0)
        Serial Number: 11493854214230175542 (0x9f825f82c350ef36)
    Signature Algorithm: sha256WithRSAEncryption
        Issuer: CN=localhost
        Validity
            Not Before: Oct 19 02:34:13 2017 GMT
            Not After : Nov 18 02:34:13 2017 GMT
        Subject: CN=localhost
        Subject Public Key Info:
            Public Key Algorithm: rsaEncryption
                Public-Key: (2048 bit)
                Modulus:
                    00:b4:b6:9c:3d:3e:c6:f2:7f:93:81:b8:1a:2a:9a:
                    a4:7a:80:22:33:42:ef:dc:48:8d:8f:e9:1b:1e:ef:
                    a1:99:a7:56:d3:a3:ed:0a:0f:d8:41:6b:8c:ea:42:
                    21:2f:88:f3:4a:0f:11:ba:e9:df:7d:6b:21:63:aa:
                    56:66:c3:74:73:27:9f:f4:47:99:c7:45:4b:c1:e6:
                    e9:d4:7c:2e:54:e8:58:2f:df:f1:02:f2:98:27:0f:
                    01:34:9a:8b:67:57:28:fe:d5:ba:b7:ed:69:d4:76:
                    80:d7:8a:8c:31:20:32:3e:10:5b:e8:d3:c3:74:60:
                    e7:bb:68:9a:d4:db:23:02:ba:6c:3c:1d:04:92:6d:
                    59:73:b4:94:d7:3b:8c:90:18:08:62:7e:c4:82:17:
                    a7:5c:aa:d8:61:9e:28:00:d8:da:ba:be:9f:b0:e8:
                    d6:ca:c2:2b:a7:46:48:aa:8d:be:55:fc:81:4b:d0:
                    85:75:41:0d:a1:5f:f6:75:83:fb:23:2e:4d:c0:1f:
                    82:6d:7b:fb:d3:d4:b5:20:48:bf:1e:fa:4b:9c:f6:
                    87:0b:39:41:1e:f8:57:45:6f:9c:53:bf:6e:4e:5b:
                    06:eb:1c:a8:2f:b0:95:12:a1:75:0a:70:24:09:92:
                    cc:67:55:05:53:89:d4:50:03:52:38:c6:98:7e:19:
                    bc:b3
                Exponent: 65537 (0x10001)
    Signature Algorithm: sha256WithRSAEncryption
         a4:f2:a2:73:bc:a4:55:8a:c8:e1:74:48:fd:d4:2f:7e:44:fe:
         e5:62:a0:02:a2:89:ab:7e:42:dc:5b:ec:25:7a:05:d0:39:48:
         5f:05:9b:e1:31:00:c5:18:2b:c9:ca:21:40:ad:23:62:0f:a2:
         ab:a0:bb:d8:32:fe:81:f3:37:ab:54:2c:da:f0:9c:f0:29:41:
         a5:48:1b:7a:38:8a:c8:13:9f:68:45:98:4f:1d:f7:b8:03:2f:
         45:11:fb:45:ee:a0:d9:e1:41:29:fd:de:71:5c:b4:18:bf:ad:
         b3:e2:6c:59:2b:a7:5e:09:1a:ce:be:eb:d9:9e:1d:13:4c:36:
         47:7f:dc:2b:41:6e:87:35:a7:99:90:e5:87:81:2e:64:41:fa:
         fb:21:de:ec:24:a8:38:70:0e:09:24:0c:ab:e2:20:fd:66:47:
         9f:94:ea:49:8e:42:62:e6:ce:fc:43:87:f3:ed:6e:d0:bb:81:
         75:62:ca:17:b0:e1:d1:7b:9d:5e:c6:de:15:42:b0:37:78:7a:
         31:14:14:52:00:09:76:71:2f:25:16:10:da:f3:4e:17:f8:de:
         2d:14:6c:b2:a3:86:15:39:87:2a:f9:fb:59:7e:59:30:2d:8c:
         4d:a1:f3:e5:21:83:e4:7f:f8:bd:b9:bf:f1:c5:25:f3:11:ae:
         a8:4a:8e:89
-----BEGIN CERTIFICATE-----
MIICpDCCAYwCCQCfgl+Cw1DvNjANBgkqhkiG9w0BAQsFADAUMRIwEAYDVQQDDAls
b2NhbGhvc3QwHhcNMTcxMDE5MDIzNDEzWhcNMTcxMTE4MDIzNDEzWjAUMRIwEAYD
VQQDDAlsb2NhbGhvc3QwggEiMA0GCSqGSIb3DQEBAQUAA4IBDwAwggEKAoIBAQC0
tpw9Psbyf5OBuBoqmqR6gCIzQu/cSI2P6Rse76GZp1bTo+0KD9hBa4zqQiEviPNK
DxG66d99ayFjqlZmw3RzJ5/0R5nHRUvB5unUfC5U6Fgv3/EC8pgnDwE0motnVyj+
1bq37WnUdoDXiowxIDI+EFvo08N0YOe7aJrU2yMCumw8HQSSbVlztJTXO4yQGAhi
fsSCF6dcqthhnigA2Nq6vp+w6NbKwiunRkiqjb5V/IFL0IV1QQ2hX/Z1g/sjLk3A
H4Jte/vT1LUgSL8e+kuc9ocLOUEe+FdFb5xTv25OWwbrHKgvsJUSoXUKcCQJksxn
VQVTidRQA1I4xph+GbyzAgMBAAEwDQYJKoZIhvcNAQELBQADggEBAKTyonO8pFWK
yOF0SP3UL35E/uVioAKiiat+Qtxb7CV6BdA5SF8Fm+ExAMUYK8nKIUCtI2IPoqug
u9gy/oHzN6tULNrwnPApQaVIG3o4isgTn2hFmE8d97gDL0UR+0XuoNnhQSn93nFc
tBi/rbPibFkrp14JGs6+69meHRNMNkd/3CtBboc1p5mQ5YeBLmRB+vsh3uwkqDhw
DgkkDKviIP1mR5+U6kmOQmLmzvxDh/PtbtC7gXViyhew4dF7nV7G3hVCsDd4ejEU
FFIACXZxLyUWENrzThf43i0UbLKjhhU5hyr5+1l+WTAtjE2h8+Uhg+R/+L25v/HF
JfMRrqhKjok=
-----END CERTIFICATE-----
